target datalayout = "e-m:e-p270:32:32-p271:32:32-p272:64:64-i64:64-i128:128-f80:128-n8:16:32:64-S128"
target triple = "x86_64-pc-linux-gnu"

@H5O_init_g = external global i8, align 1
@H5_libterm_g = external global i8, align 1

; Function Attrs: nounwind uwtable
define internal i32 @H5O__mtime_new_encode(ptr noundef %0, i1 noundef zeroext %1, i64 noundef %2, ptr noundef %3, ptr noundef %4) #0 {
  %6 = alloca ptr, align 8
  %7 = alloca i8, align 1
  %8 = alloca i64, align 8
  %9 = alloca ptr, align 8
  %10 = alloca ptr, align 8
  %11 = alloca ptr, align 8
  store ptr %0, ptr %6, align 8, !tbaa !3
  %12 = zext i1 %1 to i8
  store i8 %12, ptr %7, align 1, !tbaa !21
  store i64 %2, ptr %8, align 8, !tbaa !14
  store ptr %3, ptr %9, align 8, !tbaa !16
  store ptr %4, ptr %10, align 8, !tbaa !20
  call void @llvm.lifetime.start.p0(i64 8, ptr %11) #7
  %13 = load ptr, ptr %10, align 8, !tbaa !20
  store ptr %13, ptr %11, align 8, !tbaa !18
  %14 = load i8, ptr @H5O_init_g, align 1, !tbaa !21, !range !23, !noundef !24
  %15 = trunc i8 %14 to i1
  br i1 %15, label %20, label %16

16:                                               ; preds = %5
  %17 = load i8, ptr @H5_libterm_g, align 1, !tbaa !21, !range !23, !noundef !24
  %18 = trunc i8 %17 to i1
  %19 = xor i1 %18, true
  br label %20

20:                                               ; preds = %16, %5
  %21 = phi i1 [ true, %5 ], [ %19, %16 ]
  %22 = xor i1 %21, true
  %23 = xor i1 %22, true
  %24 = zext i1 %23 to i32
  %25 = sext i32 %24 to i64
  %26 = call i64 @llvm.expect.i64(i64 %25, i64 1)
  %27 = icmp ne i64 %26, 0
  br i1 %27, label %28, label %71

28:                                               ; preds = %20
  %29 = load ptr, ptr %9, align 8, !tbaa !16
  %30 = getelementptr inbounds nuw i8, ptr %29, i32 1
  store ptr %30, ptr %9, align 8, !tbaa !16
  store i8 1, ptr %29, align 1, !tbaa !27
  %31 = load ptr, ptr %9, align 8, !tbaa !16
  %32 = getelementptr inbounds nuw i8, ptr %31, i32 1
  store ptr %32, ptr %9, align 8, !tbaa !16
  store i8 0, ptr %31, align 1, !tbaa !27
  %33 = load ptr, ptr %9, align 8, !tbaa !16
  %34 = getelementptr inbounds nuw i8, ptr %33, i32 1
  store ptr %34, ptr %9, align 8, !tbaa !16
  store i8 0, ptr %33, align 1, !tbaa !27
  %35 = load ptr, ptr %9, align 8, !tbaa !16
  %36 = getelementptr inbounds nuw i8, ptr %35, i32 1
  store ptr %36, ptr %9, align 8, !tbaa !16
  store i8 0, ptr %35, align 1, !tbaa !27
  br label %37

37:                                               ; preds = %28
  %38 = load ptr, ptr %11, align 8, !tbaa !18
  %39 = load i64, ptr %38, align 8, !tbaa !14
  %40 = and i64 %39, 255
  %41 = trunc i64 %40 to i8
  %42 = load ptr, ptr %9, align 8, !tbaa !16
  store i8 %41, ptr %42, align 1, !tbaa !27
  %43 = load ptr, ptr %9, align 8, !tbaa !16
  %44 = getelementptr inbounds nuw i8, ptr %43, i32 1
  store ptr %44, ptr %9, align 8, !tbaa !16
  %45 = load ptr, ptr %11, align 8, !tbaa !18
  %46 = load i64, ptr %45, align 8, !tbaa !14
  %47 = ashr i64 %46, 8
  %48 = and i64 %47, 255
  %49 = trunc i64 %48 to i8
  %50 = load ptr, ptr %9, align 8, !tbaa !16
  store i8 %49, ptr %50, align 1, !tbaa !27
  %51 = load ptr, ptr %9, align 8, !tbaa !16
  %52 = getelementptr inbounds nuw i8, ptr %51, i32 1
  store ptr %52, ptr %9, align 8, !tbaa !16
  %53 = load ptr, ptr %11, align 8, !tbaa !18
  %54 = load i64, ptr %53, align 8, !tbaa !14
  %55 = ashr i64 %54, 16
  %56 = and i64 %55, 255
  %57 = trunc i64 %56 to i8
  %58 = load ptr, ptr %9, align 8, !tbaa !16
  store i8 %57, ptr %58, align 1, !tbaa !27
  %59 = load ptr, ptr %9, align 8, !tbaa !16
  %60 = getelementptr inbounds nuw i8, ptr %59, i32 1
  store ptr %60, ptr %9, align 8, !tbaa !16
  %61 = load ptr, ptr %11, align 8, !tbaa !18
  %62 = load i64, ptr %61, align 8, !tbaa !14
  %63 = ashr i64 %62, 24
  %64 = and i64 %63, 255
  %65 = trunc i64 %64 to i8
  %66 = load ptr, ptr %9, align 8, !tbaa !16
  store i8 %65, ptr %66, align 1, !tbaa !27
  %67 = load ptr, ptr %9, align 8, !tbaa !16
  %68 = getelementptr inbounds nuw i8, ptr %67, i32 1
  store ptr %68, ptr %9, align 8, !tbaa !16
  br label %69

69:                                               ; preds = %37
  br label %70

70:                                               ; preds = %69
  br label %71

71:                                               ; preds = %70, %20
  call void @llvm.lifetime.end.p0(i64 8, ptr %11) #7
  ret i32 0
}