; Function Attrs: mustprogress nofree norecurse nosync nounwind willreturn memory(read, argmem: readwrite, inaccessiblemem: none) uwtable
define internal noundef i32 @H5O__mtime_new_encode(ptr readnone captures(none) %0, i1 zeroext %1, i64 %2, ptr noundef writeonly captures(none) %3, ptr noundef readonly captures(none) %4) #2 {
  %6 = load i8, ptr @H5O_init_g, align 1, !tbaa !3, !range !7, !noundef !8
  %7 = trunc nuw i8 %6 to i1
  %8 = load i8, ptr @H5_libterm_g, align 1, !range !7
  %9 = trunc nuw i8 %8 to i1
  %10 = xor i1 %9, true
  %11 = select i1 %7, i1 true, i1 %10
  br i1 %11, label %12, label %31, !prof !9

12:                                               ; preds = %5
  %13 = getelementptr inbounds nuw i8, ptr %3, i64 1
  store i8 1, ptr %3, align 1, !tbaa !17
  %14 = getelementptr inbounds nuw i8, ptr %3, i64 2
  store i8 0, ptr %13, align 1, !tbaa !17
  %15 = getelementptr inbounds nuw i8, ptr %3, i64 3
  store i8 0, ptr %14, align 1, !tbaa !17
  %16 = getelementptr inbounds nuw i8, ptr %3, i64 4
  store i8 0, ptr %15, align 1, !tbaa !17
  %17 = load i64, ptr %4, align 8, !tbaa !13
  %18 = trunc i64 %17 to i8
  store i8 %18, ptr %16, align 1, !tbaa !17
  %19 = getelementptr inbounds nuw i8, ptr %3, i64 5
  %20 = load i64, ptr %4, align 8, !tbaa !13
  %21 = lshr i64 %20, 8
  %22 = trunc i64 %21 to i8
  store i8 %22, ptr %19, align 1, !tbaa !17
  %23 = getelementptr inbounds nuw i8, ptr %3, i64 6
  %24 = load i64, ptr %4, align 8, !tbaa !13
  %25 = lshr i64 %24, 16
  %26 = trunc i64 %25 to i8
  store i8 %26, ptr %23, align 1, !tbaa !17
  %27 = getelementptr inbounds nuw i8, ptr %3, i64 7
  %28 = load i64, ptr %4, align 8, !tbaa !13
  %29 = lshr i64 %28, 24
  %30 = trunc i64 %29 to i8
  store i8 %30, ptr %27, align 1, !tbaa !17
  br label %31

31:                                               ; preds = %12, %5
  ret i32 0
}